Certificate:
    Data:
        Version: 3 (0x2)
        Serial Number: 306714177 (0x12481641)
        Signature Algorithm: ecdsa-with-SHA256
        Issuer: CN=CA1_sha256_secp384r1_v3_ca
        Validity
            Not Before: Dec 19 09:43:28 2024 GMT
            Not After : Dec 14 09:43:28 2044 GMT
        Subject: CN=SRK4_sha256_secp384r1_v3_usr
        Subject Public Key Info:
            Public Key Algorithm: id-ecPublicKey
                Public-Key: (384 bit)
                pub:
                    04:b2:2d:36:6a:bb:cc:f0:b5:e3:e6:3d:0d:25:04:
                    27:35:2d:46:80:16:5e:dc:ad:1d:34:2b:4f:8d:5f:
                    e2:89:7e:ea:5f:7a:0c:d9:95:68:17:8c:a7:36:46:
                    f4:fd:10:94:38:fb:6b:38:0e:ee:0f:c8:a7:3e:08:
                    68:74:a2:f4:b9:d4:87:73:8e:87:22:00:b9:50:7d:
                    e0:b6:0c:b1:3c:bd:37:0f:2e:45:55:90:70:53:ba:
                    ab:8a:85:74:c3:18:e8
                ASN1 OID: secp384r1
                NIST CURVE: P-384
        X509v3 extensions:
            X509v3 Basic Constraints: 
                CA:FALSE
            Netscape Comment: 
                OpenSSL Generated Certificate
            X509v3 Subject Key Identifier: 
                F7:AF:C0:08:EA:9F:55:A7:09:CF:58:95:38:F3:48:68:61:64:6B:01
            X509v3 Authority Key Identifier: 
                D4:73:3F:BA:69:35:D1:EC:3D:99:17:A9:F8:ED:AD:9C:E1:A9:BC:46
    Signature Algorithm: ecdsa-with-SHA256
    Signature Value:
        30:64:02:30:42:33:d7:43:74:7a:19:47:d0:97:0d:1b:f7:df:
        34:0e:28:a1:86:78:08:90:9f:c4:24:b5:e1:ee:a5:f2:4d:a8:
        96:d6:31:f3:46:71:b0:8f:7d:b7:ba:0d:c8:44:57:22:02:30:
        3a:64:0d:09:25:bb:ec:de:86:09:a7:58:68:0c:ea:6a:56:d9:
        fd:e1:9f:cb:92:c7:c1:d6:08:7f:15:73:c8:a8:7c:c0:12:06:
        aa:06:b0:03:62:e1:c4:74:39:3a:22:3b
-----BEGIN CERTIFICATE-----
MIIB9TCCAXygAwIBAgIEEkgWQTAKBggqhkjOPQQDAjAlMSMwIQYDVQQDFBpDQTFf
c2hhMjU2X3NlY3AzODRyMV92M19jYTAeFw0yNDEyMTkwOTQzMjhaFw00NDEyMTQw
OTQzMjhaMCcxJTAjBgNVBAMMHFNSSzRfc2hhMjU2X3NlY3AzODRyMV92M191c3Iw
djAQBgcqhkjOPQIBBgUrgQQAIgNiAASyLTZqu8zwtePmPQ0lBCc1LUaAFl7crR00
K0+NX+KJfupfegzZlWgXjKc2RvT9EJQ4+2s4Du4PyKc+CGh0ovS51IdzjociALlQ
feC2DLE8vTcPLkVVkHBTuquKhXTDGOijezB5MAkGA1UdEwQCMAAwLAYJYIZIAYb4
QgENBB8WHU9wZW5TU0wgR2VuZXJhdGVkIENlcnRpZmljYXRlMB0GA1UdDgQWBBT3
r8AI6p9VpwnPWJU480hoYWRrATAfBgNVHSMEGDAWgBTUcz+6aTXR7D2ZF6n47a2c
4am8RjAKBggqhkjOPQQDAgNnADBkAjBCM9dDdHoZR9CXDRv33zQOKKGGeAiQn8Qk
teHupfJNqJbWMfNGcbCPfbe6DchEVyICMDpkDQklu+zehgmnWGgM6mpW2f3hn8uS
x8HWCH8Vc8iofMASBqoGsANi4cR0OToiOw==
-----END CERTIFICATE-----
