Certificate:
    Data:
        Version: 3 (0x2)
        Serial Number: 306714174 (0x1248163e)
        Signature Algorithm: ecdsa-with-SHA256
        Issuer: CN=CA1_sha256_secp384r1_v3_ca
        Validity
            Not Before: Dec 19 09:43:28 2024 GMT
            Not After : Dec 14 09:43:28 2044 GMT
        Subject: CN=SRK1_sha256_secp384r1_v3_usr
        Subject Public Key Info:
            Public Key Algorithm: id-ecPublicKey
                Public-Key: (384 bit)
                pub:
                    04:e9:a2:b1:5a:25:7b:e3:e8:e8:67:48:f1:1e:13:
                    35:5c:53:f5:f8:27:38:29:12:dc:47:63:ed:1a:a0:
                    9b:d8:d4:f8:1b:94:9c:51:82:26:8c:66:2f:96:83:
                    70:8c:4b:f6:4a:e7:5c:2b:c1:35:ff:09:b2:38:e0:
                    d6:51:f9:78:cc:1f:37:c5:ef:ce:d9:b8:a0:bb:4e:
                    da:79:25:1e:40:8e:47:fa:f3:02:9c:fd:3b:0c:74:
                    f6:e8:85:e1:88:a2:bc
                ASN1 OID: secp384r1
                NIST CURVE: P-384
        X509v3 extensions:
            X509v3 Basic Constraints: 
                CA:FALSE
            Netscape Comment: 
                OpenSSL Generated Certificate
            X509v3 Subject Key Identifier: 
                11:6F:06:60:9A:46:34:FA:7B:15:26:BC:A4:A6:33:E2:20:19:AC:C5
            X509v3 Authority Key Identifier: 
                D4:73:3F:BA:69:35:D1:EC:3D:99:17:A9:F8:ED:AD:9C:E1:A9:BC:46
    Signature Algorithm: ecdsa-with-SHA256
    Signature Value:
        30:64:02:30:71:d0:5c:af:52:b6:09:8f:a7:f1:f9:0d:d2:41:
        25:53:70:b7:1f:39:e6:e9:6e:64:8f:3b:f7:cb:25:da:47:54:
        91:18:23:7a:11:cc:06:33:cc:2b:8f:f6:21:ee:24:8a:02:30:
        39:6a:1d:f8:f4:c2:e0:7a:20:4c:da:ec:60:ed:4d:a5:0a:e3:
        25:53:54:01:bd:43:5a:35:a5:d5:40:d7:49:a8:13:5c:89:b4:
        e8:e2:86:3f:0a:bc:74:7a:5e:9e:f0:43
-----BEGIN CERTIFICATE-----
MIIB9TCCAXygAwIBAgIEEkgWPjAKBggqhkjOPQQDAjAlMSMwIQYDVQQDFBpDQTFf
c2hhMjU2X3NlY3AzODRyMV92M19jYTAeFw0yNDEyMTkwOTQzMjhaFw00NDEyMTQw
OTQzMjhaMCcxJTAjBgNVBAMMHFNSSzFfc2hhMjU2X3NlY3AzODRyMV92M191c3Iw
djAQBgcqhkjOPQIBBgUrgQQAIgNiAATporFaJXvj6OhnSPEeEzVcU/X4JzgpEtxH
Y+0aoJvY1PgblJxRgiaMZi+Wg3CMS/ZK51wrwTX/CbI44NZR+XjMHzfF787ZuKC7
Ttp5JR5Ajkf68wKc/TsMdPboheGIoryjezB5MAkGA1UdEwQCMAAwLAYJYIZIAYb4
QgENBB8WHU9wZW5TU0wgR2VuZXJhdGVkIENlcnRpZmljYXRlMB0GA1UdDgQWBBQR
bwZgmkY0+nsVJrykpjPiIBmsxTAfBgNVHSMEGDAWgBTUcz+6aTXR7D2ZF6n47a2c
4am8RjAKBggqhkjOPQQDAgNnADBkAjBx0FyvUrYJj6fx+Q3SQSVTcLcfOebpbmSP
O/fLJdpHVJEYI3oRzAYzzCuP9iHuJIoCMDlqHfj0wuB6IEza7GDtTaUK4yVTVAG9
Q1o1pdVA10moE1yJtOjihj8KvHR6Xp7wQw==
-----END CERTIFICATE-----
