Certificate:
    Data:
        Version: 3 (0x2)
        Serial Number: 306714175 (0x1248163f)
        Signature Algorithm: ecdsa-with-SHA256
        Issuer: CN=CA1_sha256_secp384r1_v3_ca
        Validity
            Not Before: Dec 19 09:43:28 2024 GMT
            Not After : Dec 14 09:43:28 2044 GMT
        Subject: CN=SRK2_sha256_secp384r1_v3_usr
        Subject Public Key Info:
            Public Key Algorithm: id-ecPublicKey
                Public-Key: (384 bit)
                pub:
                    04:36:55:8a:ec:13:f0:7a:d3:99:33:a0:1f:19:d9:
                    9a:db:57:ed:36:07:8a:29:7e:67:11:32:72:f4:ae:
                    9c:dc:4c:a8:a5:4a:6d:20:35:e2:02:7a:fb:78:0e:
                    92:07:fd:40:2d:13:5b:ab:1d:06:f1:32:55:47:fd:
                    71:c3:77:d8:f5:aa:76:10:1f:39:c0:9e:db:83:4c:
                    02:b8:e3:dd:54:a8:a3:01:6a:78:b0:b0:a8:af:2c:
                    e1:1f:0e:0b:a1:79:22
                ASN1 OID: secp384r1
                NIST CURVE: P-384
        X509v3 extensions:
            X509v3 Basic Constraints: 
                CA:FALSE
            Netscape Comment: 
                OpenSSL Generated Certificate
            X509v3 Subject Key Identifier: 
                9F:DF:DD:38:4E:81:EC:C7:21:64:15:A1:AE:04:BA:67:E6:7C:4C:E3
            X509v3 Authority Key Identifier: 
                D4:73:3F:BA:69:35:D1:EC:3D:99:17:A9:F8:ED:AD:9C:E1:A9:BC:46
    Signature Algorithm: ecdsa-with-SHA256
    Signature Value:
        30:65:02:30:57:88:e7:69:c7:ec:8f:36:1b:70:a9:fb:b6:a3:
        02:7e:9a:13:90:99:32:b6:bd:cf:26:1c:d1:4a:ca:96:00:60:
        e3:63:8c:41:a0:93:a4:8a:92:09:13:b2:3f:ed:e7:d4:02:31:
        00:96:02:bb:9b:b0:3d:97:5b:bf:fa:e8:4e:bc:f2:f2:a4:10:
        eb:51:cf:55:65:47:96:fb:c9:05:fa:e6:6d:f3:eb:49:a6:d9:
        1c:5a:bf:67:cf:11:9a:33:29:f6:2b:7b:6d
-----BEGIN CERTIFICATE-----
MIIB9jCCAXygAwIBAgIEEkgWPzAKBggqhkjOPQQDAjAlMSMwIQYDVQQDFBpDQTFf
c2hhMjU2X3NlY3AzODRyMV92M19jYTAeFw0yNDEyMTkwOTQzMjhaFw00NDEyMTQw
OTQzMjhaMCcxJTAjBgNVBAMMHFNSSzJfc2hhMjU2X3NlY3AzODRyMV92M191c3Iw
djAQBgcqhkjOPQIBBgUrgQQAIgNiAAQ2VYrsE/B605kzoB8Z2ZrbV+02B4opfmcR
MnL0rpzcTKilSm0gNeICevt4DpIH/UAtE1urHQbxMlVH/XHDd9j1qnYQHznAntuD
TAK4491UqKMBaniwsKivLOEfDguheSKjezB5MAkGA1UdEwQCMAAwLAYJYIZIAYb4
QgENBB8WHU9wZW5TU0wgR2VuZXJhdGVkIENlcnRpZmljYXRlMB0GA1UdDgQWBBSf
3904ToHsxyFkFaGuBLpn5nxM4zAfBgNVHSMEGDAWgBTUcz+6aTXR7D2ZF6n47a2c
4am8RjAKBggqhkjOPQQDAgNoADBlAjBXiOdpx+yPNhtwqfu2owJ+mhOQmTK2vc8m
HNFKypYAYONjjEGgk6SKkgkTsj/t59QCMQCWArubsD2XW7/66E688vKkEOtRz1Vl
R5b7yQX65m3z60mm2Rxav2fPEZozKfYre20=
-----END CERTIFICATE-----
