Certificate:
    Data:
        Version: 3 (0x2)
        Serial Number: 306714176 (0x12481640)
        Signature Algorithm: ecdsa-with-SHA256
        Issuer: CN=CA1_sha256_secp384r1_v3_ca
        Validity
            Not Before: Dec 19 09:43:28 2024 GMT
            Not After : Dec 14 09:43:28 2044 GMT
        Subject: CN=SRK3_sha256_secp384r1_v3_usr
        Subject Public Key Info:
            Public Key Algorithm: id-ecPublicKey
                Public-Key: (384 bit)
                pub:
                    04:55:50:72:62:d5:82:bb:5e:ba:a0:5e:45:15:1c:
                    aa:a4:5b:1c:cf:90:16:b9:c5:f3:3e:34:0e:72:ea:
                    40:a4:c1:d4:7b:3a:92:8d:80:19:d4:1e:51:f8:3e:
                    01:72:81:85:91:6f:7f:74:c1:55:58:43:c0:ff:4a:
                    11:e5:89:e5:a7:9a:dc:4b:59:4b:7a:95:57:90:5b:
                    21:29:6d:2a:8e:7e:26:21:92:e1:ed:9b:42:7e:a1:
                    41:60:0a:a1:cb:07:a8
                ASN1 OID: secp384r1
                NIST CURVE: P-384
        X509v3 extensions:
            X509v3 Basic Constraints: 
                CA:FALSE
            Netscape Comment: 
                OpenSSL Generated Certificate
            X509v3 Subject Key Identifier: 
                15:BF:2D:F1:18:66:95:86:C2:5B:7D:60:DD:E9:2D:65:25:A5:52:31
            X509v3 Authority Key Identifier: 
                D4:73:3F:BA:69:35:D1:EC:3D:99:17:A9:F8:ED:AD:9C:E1:A9:BC:46
    Signature Algorithm: ecdsa-with-SHA256
    Signature Value:
        30:65:02:31:00:98:c7:c4:29:0d:ca:1c:e1:86:ff:f6:b6:5b:
        26:14:10:85:13:a6:e5:8f:2d:c5:b0:15:35:2d:3c:4c:92:ee:
        d6:58:ff:20:02:f6:47:b5:96:71:74:0c:f1:f1:d5:af:69:02:
        30:2e:ef:01:39:e7:5c:a3:3e:da:01:39:a0:90:7f:41:3d:d6:
        52:43:6d:ac:7e:db:06:f3:c9:3d:c5:20:c0:b3:fa:b1:29:4d:
        71:b2:7f:1f:ac:7c:38:42:7e:3a:7a:a0:cf
-----BEGIN CERTIFICATE-----
MIIB9jCCAXygAwIBAgIEEkgWQDAKBggqhkjOPQQDAjAlMSMwIQYDVQQDFBpDQTFf
c2hhMjU2X3NlY3AzODRyMV92M19jYTAeFw0yNDEyMTkwOTQzMjhaFw00NDEyMTQw
OTQzMjhaMCcxJTAjBgNVBAMMHFNSSzNfc2hhMjU2X3NlY3AzODRyMV92M191c3Iw
djAQBgcqhkjOPQIBBgUrgQQAIgNiAARVUHJi1YK7XrqgXkUVHKqkWxzPkBa5xfM+
NA5y6kCkwdR7OpKNgBnUHlH4PgFygYWRb390wVVYQ8D/ShHlieWnmtxLWUt6lVeQ
WyEpbSqOfiYhkuHtm0J+oUFgCqHLB6ijezB5MAkGA1UdEwQCMAAwLAYJYIZIAYb4
QgENBB8WHU9wZW5TU0wgR2VuZXJhdGVkIENlcnRpZmljYXRlMB0GA1UdDgQWBBQV
vy3xGGaVhsJbfWDd6S1lJaVSMTAfBgNVHSMEGDAWgBTUcz+6aTXR7D2ZF6n47a2c
4am8RjAKBggqhkjOPQQDAgNoADBlAjEAmMfEKQ3KHOGG//a2WyYUEIUTpuWPLcWw
FTUtPEyS7tZY/yAC9ke1lnF0DPHx1a9pAjAu7wE551yjPtoBOaCQf0E91lJDbax+
2wbzyT3FIMCz+rEpTXGyfx+sfDhCfjp6oM8=
-----END CERTIFICATE-----
